; Function Attrs: mustprogress uwtable
define noundef signext i8 @_ZN16IcuTestErrorCode24errDataIfFailureAndResetEv(ptr noundef nonnull align 8 dereferenceable(96) %this) local_unnamed_addr #1 align 2 personality ptr @__gxx_personality_v0 {
entry:
  %ref.tmp = alloca %"class.icu_75::UnicodeString", align 8
  %errorCode.i = getelementptr inbounds i8, ptr %this, i64 8
  %0 = load i32, ptr %errorCode.i, align 8
  %cmp.i.i = icmp slt i32 %0, 1
  br i1 %cmp.i.i, label %if.else, label %if.then

if.then:                                          ; preds = %entry
  call void @_ZN6icu_7513UnicodeStringC1EPKDs(ptr noundef nonnull align 8 dereferenceable(64) %ref.tmp, ptr noundef nonnull @.str.2)
  invoke void @_ZNK16IcuTestErrorCode6errlogEaRKN6icu_7513UnicodeStringEPKc(ptr noundef nonnull align 8 dereferenceable(96) %this, i8 noundef signext 1, ptr noundef nonnull align 8 dereferenceable(64) %ref.tmp, ptr noundef null)
          to label %invoke.cont unwind label %lpad

invoke.cont:                                      ; preds = %if.then
  call void @_ZN6icu_7513UnicodeStringD1Ev(ptr noundef nonnull align 8 dereferenceable(64) %ref.tmp) #20
  %call2 = call noundef i32 @_ZN6icu_759ErrorCode5resetEv(ptr noundef nonnull align 8 dereferenceable(12) %this)
  br label %return

lpad:                                             ; preds = %if.then
  %1 = landingpad { ptr, i32 }
          cleanup
  call void @_ZN6icu_7513UnicodeStringD1Ev(ptr noundef nonnull align 8 dereferenceable(64) %ref.tmp) #20
  resume { ptr, i32 } %1

if.else:                                          ; preds = %entry
  %call3 = tail call noundef i32 @_ZN6icu_759ErrorCode5resetEv(ptr noundef nonnull align 8 dereferenceable(12) %this)
  br label %return

return:                                           ; preds = %if.else, %invoke.cont
  %retval.0 = phi i8 [ 1, %invoke.cont ], [ 0, %if.else ]
  ret i8 %retval.0
}